; Function Attrs: nounwind uwtable
define ptr @l_Lean_Elab_Tactic_DiscrTreeKey_evalDiscrTreeKeyCmd(ptr noundef %0, ptr noundef %1, ptr noundef %2, ptr noundef %3) local_unnamed_addr #0 {
  %5 = load ptr, ptr @l_Lean_Elab_Tactic_DiscrTreeKey_evalDiscrTreeKeyCmd___closed__4, align 8, !tbaa !4
  %6 = ptrtoint ptr %0 to i64
  %7 = and i64 %6, 1
  %.not = icmp eq i64 %7, 0
  br i1 %.not, label %8, label %lean_inc.exit.thread

8:                                                ; preds = %4
  %.val.i = load i32, ptr %0, align 4, !tbaa !8
  %9 = icmp sgt i32 %.val.i, 0
  br i1 %9, label %10, label %12, !prof !11

10:                                               ; preds = %8
  %11 = add nuw i32 %.val.i, 1
  store i32 %11, ptr %0, align 4, !tbaa !8
  br label %lean_inc.exit

12:                                               ; preds = %8
  %.not.i23 = icmp eq i32 %.val.i, 0
  br i1 %.not.i23, label %lean_inc.exit, label %13

13:                                               ; preds = %12
  tail call void @lean_inc_ref_cold(ptr noundef nonnull %0) #4
  br label %lean_inc.exit

lean_inc.exit:                                    ; preds = %13, %12, %10
  %14 = tail call zeroext i8 @l_Lean_Syntax_isOfKind(ptr noundef nonnull %0, ptr noundef %5) #4
  %15 = icmp eq i8 %14, 0
  br i1 %15, label %19, label %27

lean_inc.exit.thread:                             ; preds = %4
  %16 = tail call zeroext i8 @l_Lean_Syntax_isOfKind(ptr noundef %0, ptr noundef %5) #4
  %17 = icmp eq i8 %16, 0
  br i1 %17, label %lean_dec.exit20, label %.thread24

.thread24:                                        ; preds = %lean_inc.exit.thread
  %18 = tail call ptr @l_Lean_Syntax_getArg(ptr noundef %0, ptr noundef nonnull inttoptr (i64 3 to ptr)) #4
  br label %lean_dec.exit

19:                                               ; preds = %lean_inc.exit
  %20 = load i32, ptr %0, align 4, !tbaa !8
  %21 = icmp sgt i32 %20, 1
  br i1 %21, label %22, label %24, !prof !11

22:                                               ; preds = %19
  %23 = add nsw i32 %20, -1
  store i32 %23, ptr %0, align 4, !tbaa !8
  br label %lean_dec.exit20

24:                                               ; preds = %19
  %.not.i = icmp eq i32 %20, 0
  br i1 %.not.i, label %lean_dec.exit20, label %25

25:                                               ; preds = %24
  tail call void @lean_dec_ref_cold(ptr noundef nonnull %0) #4
  br label %lean_dec.exit20

lean_dec.exit20:                                  ; preds = %lean_inc.exit.thread, %25, %24, %22
  %26 = load ptr, ptr @l_Lean_Elab_Tactic_DiscrTreeKey_evalDiscrTreeKeyCmd___closed__5, align 8, !tbaa !4
  br label %44

27:                                               ; preds = %lean_inc.exit
  %28 = tail call ptr @l_Lean_Syntax_getArg(ptr noundef nonnull %0, ptr noundef nonnull inttoptr (i64 3 to ptr)) #4
  %29 = load i32, ptr %0, align 4, !tbaa !8
  %30 = icmp sgt i32 %29, 1
  br i1 %30, label %31, label %33, !prof !11

31:                                               ; preds = %27
  %32 = add nsw i32 %29, -1
  store i32 %32, ptr %0, align 4, !tbaa !8
  br label %lean_dec.exit

33:                                               ; preds = %27
  %.not.i21 = icmp eq i32 %29, 0
  br i1 %.not.i21, label %lean_dec.exit, label %34

34:                                               ; preds = %33
  tail call void @lean_dec_ref_cold(ptr noundef nonnull %0) #4
  br label %lean_dec.exit

lean_dec.exit:                                    ; preds = %34, %33, %31, %.thread24
  %35 = phi ptr [ %18, %.thread24 ], [ %28, %31 ], [ %28, %33 ], [ %28, %34 ]
  tail call void @lean_inc_heartbeat() #4
  %36 = tail call noalias ptr @mi_malloc_small(i64 noundef 32) #4
  %37 = icmp eq ptr %36, null
  br i1 %37, label %38, label %lean_alloc_closure.exit

38:                                               ; preds = %lean_dec.exit
  tail call void @lean_internal_panic_out_of_memory() #5
  unreachable

lean_alloc_closure.exit:                          ; preds = %lean_dec.exit
  %39 = getelementptr inbounds nuw i8, ptr %36, i64 4
  store i32 1, ptr %36, align 4, !tbaa !8
  store i32 -184549344, ptr %39, align 4
  %40 = getelementptr inbounds nuw i8, ptr %36, i64 8
  store ptr @l_Lean_Elab_Tactic_DiscrTreeKey_evalDiscrTreeKeyCmd___lambda__1, ptr %40, align 8, !tbaa !4
  %41 = getelementptr inbounds nuw i8, ptr %36, i64 16
  store i16 8, ptr %41, align 8, !tbaa !16
  %42 = getelementptr inbounds nuw i8, ptr %36, i64 18
  store i16 1, ptr %42, align 2, !tbaa !16
  %43 = getelementptr inbounds nuw i8, ptr %36, i64 24
  store ptr %35, ptr %43, align 8, !tbaa !4
  br label %44

44:                                               ; preds = %lean_alloc_closure.exit, %lean_dec.exit20
  %.sink = phi ptr [ %36, %lean_alloc_closure.exit ], [ %26, %lean_dec.exit20 ]
  %45 = tail call ptr @l_Lean_Elab_Command_liftTermElabM___rarg(ptr noundef %.sink, ptr noundef %1, ptr noundef %2, ptr noundef %3) #4
  ret ptr %45
}